ccopy_reg
_reconstructor
p1
(cdebian_linux.config
ConfigCore
p2
c__builtin__
dict
p3
(dp4
(S'image'
S'amd64'
p5
tp6
(dp7
S'configs'
p8
(lp9
S'kernelarch-x86/config'
p10
asS'bootloaders'
p11
(lp12
S'grub-pc'
p13
aS'extlinux'
p14
aS'lilo'
p15
ass(S'description'
S'sparc64'
p16
NS'sparc64'
tp17
(dp18
S'hardware'
p19
S'uniprocessor 64-bit UltraSPARC'
p20
ss(S'base'
g5
S'none'
p21
tp22
(dp23
S'flavours'
p24
(lp25
S'amd64'
p26
ass(S'image'
S'ia64'
p27
tp28
(dp29
S'suggests'
p30
S'fdutils'
p31
sS'bootloaders'
p32
(lp33
S'elilo'
p34
ass(S'xen'
S'i386'
p35
S'none'
p36
S'amd64'
tp37
(dp38
S'flavours'
p39
(lp40
S'amd64'
p41
asS'dom0-support'
p42
I01
ss(S'version'
p43
tp44
(dp45
S'abiname'
p46
S'3.2.0-4'
p47
sS'source'
p48
V3.2.53-2
p49
ss(S'description'
g5
g21
S'amd64'
tp50
(dp51
S'parts'
p52
(lp53
S'xen'
p54
ass(S'description'
S'hppa'
p55
NS'parisc64'
tp56
(dp57
S'hardware'
p58
S'64-bit PA-RISC'
p59
ss(S'base'
p60
S'ppc64'
p61
S'none'
p62
tp63
(dp64
S'implicit-flavour'
p65
I01
sS'flavours'
p66
(lp67
S'powerpc64'
p68
ass(S'description'
S'm68k'
p69
NS'mvme16x'
tp70
(dp71
S'hardware'
p72
S'Motorola MVME162/6/7, MVME172/7'
p73
ss(S'description'
S'sparc'
p74
NS'sparc32'
tp75
(dp76
S'hardware'
p77
S'uniprocessor sparc32 (sun4m)'
p78
ss(S'description'
S's390'
p79
NS's390'
tp80
(dp81
S'hardware'
p82
S'IBM S/390'
p83
sS'parts'
p84
(lp85
S'reader'
p86
ass(S'description'
S's390x'
p87
NS's390x-tape'
tp88
(dp89
S'hardware'
p90
S'IBM zSeries'
p91
sS'parts'
p92
(lp93
S'tape'
p94
ass(S'description'
S'alpha'
p95
NS'alpha-smp'
tp96
(dp97
S'hardware'
p98
S'Alpha SMP'
p99
sS'hardware-long'
p100
S'DEC Alpha SMP systems with extended kernel start address (Wildfire, Titan, Marvel)'
p101
ss(S'build'
g87
NS's390x-tape'
tp102
(dp103
S'modules'
p104
I00
ss(g60
S'armhf'
p105
g62
tp106
(dp107
g65
I01
sg66
(lp108
S'mx5'
p109
aS'omap'
p110
aS'vexpress'
p111
ass(S'image'
g79
NS's390-tape'
tp112
(dp113
S'override-localversion'
p114
S's390'
p115
sS'type'
p116
S'plain-s390-tape'
p117
sS'initramfs'
p118
I00
ss(S'description'
g55
NS'parisc-smp'
tp119
(dp120
S'hardware'
p121
S'multiprocessor 32-bit PA-RISC'
p122
ss(S'image'
g35
NS'486'
tp123
(dp124
S'configs'
p125
(lp126
S'kernelarch-x86/config-arch-32'
p127
ass(S'build'
g5
tp128
(dp129
S'debug-info'
p130
I01
ss(S'base'
g35
S'rt'
tp131
(dp132
S'flavours'
p133
(lp134
S'686-pae'
p135
ass(S'build'
S'armel'
p136
NS'orion5x'
tp137
(dp138
S'image-file'
p139
S'arch/arm/boot/zImage'
p140
ss(S'abi'
S'mips'
p141
tp142
(dp143
S'ignore-changes'
p144
(lp145
S'vgacon_*'
p146
ass(g60
S'powerpc'
p147
g62
tp148
(dp149
g65
I01
sg66
(lp150
S'powerpc'
p151
aS'powerpc-smp'
p152
aS'powerpc64'
p153
ass(S'description'
g136
NS'ixp4xx'
tp154
(dp155
S'hardware'
p156
S'IXP4xx'
p157
sS'hardware-long'
p158
S'IXP4xx based systems (Linksys NSLU2, etc)'
p159
ss(S'description'
g69
NS'bvme6000'
tp160
(dp161
S'hardware'
p162
S'BVM BVME4000 and BVME6000'
p163
ss(S'image'
g87
NS's390x'
tp164
(dp165
S'configs'
p166
(lp167
S's390/config.s390x'
p168
ass(S'image'
g147
tp169
(dp170
S'suggests'
p171
S'mkvmlinuz'
p172
ss(S'description'
g141
NS'sb1a-bcm91480b'
tp173
(dp174
S'hardware'
p175
S'BCM91480B'
p176
sS'hardware-long'
p177
S'Broadcom BCM91480B systems (aka BigSur)'
p178
ss(S'base'
g5
S'rt'
tp179
(dp180
S'flavours'
p181
(lp182
S'amd64'
p183
ass(S'description'
g147
NS'powerpc-smp'
tp184
(dp185
S'hardware'
p186
S'multiprocessor 32-bit PowerPC'
p187
ss(S'description'
g35
g36
S'amd64'
tp188
(dp189
S'parts'
p190
(lp191
S'xen'
p192
ass(S'description'
S'mipsel'
p193
NS'5kc-malta'
tp194
(dp195
S'hardware'
p196
S'MIPS Malta (64-bit)'
p197
sS'hardware-long'
p198
S'MIPS Malta boards (64-bit)'
p199
ss(S'image'
g136
NS'ixp4xx'
tp200
(dp201
S'check-size'
p202
S'1441760'
p203
ss(S'base'
g35
tp204
(dp205
S'kernel-arch'
p206
S'x86'
p207
sS'featuresets'
p208
(lp209
S'none'
p210
aS'rt'
p211
ass(S'image'
g193
NS'5kc-malta'
tp212
(dp213
S'configs'
p214
(lp215
S'mips/config.5kc-malta'
p216
ass(S'base'
g193
tp217
(dp218
S'kernel-arch'
p219
S'mips'
p220
sS'featuresets'
p221
(lp222
g62
ass(S'image'
g35
NS'686-pae'
tp223
(dp224
S'configs'
p225
(lp226
S'kernelarch-x86/config-arch-32'
p227
asS'recommends'
p228
S'libc6-i686'
p229
ss(S'image'
g136
NS'iop32x'
tp230
(dp231
S'check-size'
p232
S'1441784'
p233
ss(S'build'
g136
NS'mv78xx0'
tp234
(dp235
S'image-file'
p236
S'arch/arm/boot/zImage'
p237
ss(g60
g193
g62
tp238
(dp239
g65
I01
sg66
(lp240
S'r5k-cobalt'
p241
aS'sb1-bcm91250a'
p242
aS'sb1a-bcm91480b'
p243
aS'4kc-malta'
p244
aS'5kc-malta'
p245
aS'loongson-2f'
p246
ass(S'description'
g69
NS'mvme147'
tp247
(dp248
S'hardware'
p249
S'Motorola MVME147'
p250
ss(S'abi'
g74
tp251
(dp252
S'ignore-changes'
p253
(lp254
S'__down_read'
p255
aS'__down_read_trylock'
p256
aS'__down_write'
p257
aS'__down_write_trylock'
p258
aS'__downgrade_write'
p259
aS'__up_read'
p260
aS'__up_write'
p261
ass(S'relations'
tp262
(dp263
S'initramfs-fallback'
p264
S'linux-initramfs-tool'
p265
sS'gcc-4.5'
p266
S'gcc-4.5'
p267
sS'gcc-4.6'
p268
S'gcc-4.6'
p269
sS'initramfs-tools'
p270
S'initramfs-tools (>= 0.99~)'
p271
sS'gcc-4.4'
p272
S'gcc-4.4'
p273
ss(S'description'
g74
NS'sparc64'
tp274
(dp275
S'hardware'
p276
S'uniprocessor 64-bit UltraSPARC'
p277
ss(S'description'
g35
NS'686-pae'
tp278
(dp279
S'hardware'
p280
S'modern PCs'
p281
sS'parts'
p282
(lp283
S'pae'
p284
asS'hardware-long'
p285
S'PCs with one or more processors supporting PAE'
p286
ss(S'description'
g136
NS'mv78xx0'
tp287
(dp288
S'hardware'
p289
S'Marvell 78xx0'
p290
sS'hardware-long'
p291
S'Marvell DB-78xx0-BP Development Board'
p292
ss(g60
S'sh4'
p293
g62
tp294
(dp295
g65
I01
sg66
(lp296
S'sh7751r'
p297
aS'sh7785lcr'
p298
ass(S'description'
g69
NS'mac'
tp299
(dp300
S'hardware'
p301
S'Macintosh'
p302
ss(S'description'
g293
NS'sh7751r'
tp303
(dp304
S'hardware'
p305
S'sh7751r'
p306
sS'hardware-long'
p307
S'Renesas SH7751R R2D plus board'
p308
ss(S'description'
g69
NS'atari'
tp309
(dp310
S'hardware'
p311
S'Atari'
p312
ss(S'base'
g136
tp313
(dp314
S'kernel-arch'
p315
S'arm'
p316
sg221
(lp317
g62
ass(S'base'
g74
tp318
(dp319
S'kernel-arch'
p320
S'sparc'
p321
sg221
(lp322
g62
ass(S'description'
g136
NS'versatile'
tp323
(dp324
S'hardware'
p325
S'Versatile'
p326
sS'hardware-long'
p327
S'Versatile systems (PB, AB, Qemu)'
p328
ss(S'build'
g136
NS'kirkwood'
tp329
(dp330
S'image-file'
p331
S'arch/arm/boot/zImage'
p332
ss(g60
g79
g62
tp333
(dp334
g65
I01
sg66
(lp335
S's390x'
p336
aS's390x-tape'
p337
ass(S'description'
g79
NS's390-tape'
tp338
(dp339
S'hardware'
p340
S'IBM S/390'
p341
sS'parts'
p342
(lp343
S'tape'
p344
ass(g60
g87
g62
tp345
(dp346
g65
I01
sg66
(lp347
S's390x'
p348
aS's390x-tape'
p349
ass(S'base'
g95
tp350
(dp351
S'kernel-arch'
p352
S'alpha'
p353
sg221
(lp354
g62
ass(S'description'
g193
NS'loongson-2f'
tp355
(dp356
S'hardware'
p357
S'Loongson 2F'
p358
sS'hardware-long'
p359
S'Lemote Loongson 2F systems'
p360
ss(S'description'
g141
NS'sb1-bcm91250a'
tp361
(dp362
S'hardware'
p363
S'BCM91250A'
p364
sS'hardware-long'
p365
S'Broadcom BCM91250A systems (aka SWARM)'
p366
ss(S'image'
g193
tp367
(dp368
S'configs'
p369
(lp370
S'kernelarch-mips/config'
p371
aS'mipsel/config'
p372
asS'initramfs'
p373
I00
ss(S'xen'
g35
g36
S'686-pae'
tp374
(dp375
S'flavours'
p376
(lp377
S'i386'
p378
aS'amd64'
p379
asS'dom0-support'
p380
I01
ss(S'description'
g87
NS's390x'
tp381
(dp382
S'hardware'
p383
S'IBM zSeries'
p384
sS'parts'
p385
(lp386
S'reader'
p387
ass(S'image'
g87
NS's390x-tape'
tp388
(dp389
S'configs'
p390
(lp391
S's390/config.s390x-tape'
p392
asS'override-localversion'
p393
S's390x'
p394
sS'type'
p395
S'plain-s390-tape'
p396
sS'initramfs'
p397
I00
ss(S'base'
g5
tp398
(dp399
S'kernel-arch'
p400
S'x86'
p401
sS'featuresets'
p402
(lp403
S'none'
p404
aS'rt'
p405
ass(S'base'
g27
tp406
(dp407
S'kernel-arch'
p408
S'ia64'
p409
sg221
(lp410
g62
ass(S'description'
g193
NS'sb1-bcm91250a'
tp411
(dp412
S'hardware'
p413
S'BCM91250A'
p414
sS'hardware-long'
p415
S'Broadcom BCM91250A systems (aka SWARM)'
p416
ss(S'base'
g55
NS'parisc64-smp'
tp417
(dp418
S'override-host-type'
p419
S'hppa64-linux-gnu'
p420
sS'cflags'
p421
S'-fno-cse-follow-jumps'
p422
ss(S'description'
g95
NS'alpha-generic'
tp423
(dp424
S'hardware'
p425
S'Alpha'
p426
sS'hardware-long'
p427
S'DEC Alpha systems with extended kernel start address (Wildfire, Titan, Marvel)'
p428
ss(S'base'
g141
tp429
(dp430
S'kernel-arch'
p431
S'mips'
p432
sg221
(lp433
g62
ass(S'image'
g136
NS'orion5x'
tp434
(dp435
S'check-size'
p436
S'1572792'
p437
sS'recommends'
p438
S'uboot-mkimage'
p439
ss(S'base'
g79
tp440
(dp441
S'kernel-arch'
p442
S's390'
p443
sg221
(lp444
g62
ass(g60
g136
g62
tp445
(dp446
g65
I01
sg66
(lp447
S'iop32x'
p448
aS'ixp4xx'
p449
aS'kirkwood'
p450
aS'mv78xx0'
p451
aS'orion5x'
p452
aS'versatile'
p453
ass(S'build'
g105
NS'omap'
tp454
(dp455
S'image-file'
p456
S'arch/arm/boot/zImage'
p457
ss(S'abi'
g16
tp458
(dp459
S'ignore-changes'
p460
(lp461
S'__down_read'
p462
aS'__down_read_trylock'
p463
aS'__down_write'
p464
aS'__down_write_trylock'
p465
aS'__downgrade_write'
p466
aS'__up_read'
p467
aS'__up_write'
p468
ass(S'description'
g136
NS'iop32x'
tp469
(dp470
S'hardware'
p471
S'IOP32x'
p472
sS'hardware-long'
p473
S'IOP32x based systems (Thecus N2100, etc)'
p474
ss(S'base'
NS'rt'
tp475
(dp476
S'enabled'
p477
I01
ss(S'build'
g79
NS's390x-tape'
tp478
(dp479
S'modules'
p480
I00
ss(S'description'
g35
tp481
(dp482
S'part-long-pae'
p483
S'This kernel requires PAE (Physical Address Extension).\nThis feature is supported by the Intel Pentium Pro/II/III/4/4M/D, Xeon,\nCore and Atom; AMD Geode NX, Athlon (K7), Duron, Opteron, Sempron,\nTurion or Phenom; Transmeta Efficeon; VIA C7; and some other processors.'
p484
ss(S'description'
g105
NS'omap'
tp485
(dp486
S'hardware'
p487
S'TI OMAP3+'
p488
sS'hardware-long'
p489
S'Texas Instruments OMAP3 or OMAP4 based systems'
p490
ss(S'image'
g5
NS'amd64'
tp491
(dp492
S'configs'
p493
(lp494
S'kernelarch-x86/config-arch-64'
p495
ass(S'base'
g35
g36
tp496
(dp497
S'flavours'
p498
(lp499
S'486'
p500
aS'686-pae'
p501
aS'amd64'
p502
ass(S'xen'
g5
g21
S'amd64'
tp503
(dp504
S'flavours'
p505
(lp506
S'amd64'
p507
asS'dom0-support'
p508
I01
ss(S'build'
g35
NS'686-pae'
tp509
(dp510
S'debug-info'
p511
I01
ss(S'image'
g136
tp512
(dp513
S'suggests'
p514
S'fdutils'
p515
ss(S'image'
g79
tp516
(dp517
S'bootloaders'
p518
(lp519
S's390-tools'
p520
ass(S'abi'
g87
tp521
(dp522
S'ignore-changes'
p523
(lp524
S'arch_pick_mmap_layout'
p525
ass(S'abi'
g5
tp526
(dp527
S'ignore-changes'
p528
(lp529
S'module:arch/x86/kvm/kvm'
p530
ass(S'image'
g55
tp531
(dp532
S'suggests'
p533
S'palo'
p534
ss(S'build'
g136
NS'ixp4xx'
tp535
(dp536
S'image-file'
p537
S'arch/arm/boot/zImage'
p538
ss(S'relations'
g55
tp539
(dp540
S'gcc-4.4'
p541
S'gcc-4.4, binutils-hppa64, gcc-4.4-hppa64'
p542
ss(S'description'
g141
NS'r4k-ip22'
tp543
(dp544
S'hardware'
p545
S'SGI IP22'
p546
sS'hardware-long'
p547
S'SGI IP22 systems (Indy, Indigo2)'
p548
ss(S'abi'
g79
tp549
(dp550
S'ignore-changes'
p551
(lp552
S'arch_pick_mmap_layout'
p553
ass(S'image'
g74
NS'sparc32'
tp554
(dp555
S'image-postproc'
p556
S'sparc32-image-postproc'
p557
ss(S'image'
g35
NS'amd64'
tp558
(dp559
S'configs'
p560
(lp561
S'kernelarch-x86/config-arch-64'
p562
asS'recommends'
p563
S'libc6-i686'
p564
ss(S'description'
g105
NS'vexpress'
tp565
(dp566
S'hardware'
p567
S'ARM Ltd. Versatile Express'
p568
sS'hardware-long'
p569
S'ARM Ltd. Versatile Express family of processors'
p570
ss(S'description'
g293
NS'sh7785lcr'
tp571
(dp572
S'hardware'
p573
S'sh7785lcr'
p574
sS'hardware-long'
p575
S'Renesas SH7785 reference board'
p576
ss(S'image'
g16
NS'sparc64'
tp577
(dp578
S'configs'
p579
(lp580
S'sparc/config.sparc64'
p581
ass(S'description'
g69
NS'amiga'
tp582
(dp583
S'hardware'
p584
S'Amiga'
p585
ss(g60
g55
g62
tp586
(dp587
g65
I01
sg66
(lp588
S'parisc'
p589
aS'parisc-smp'
p590
aS'parisc64'
p591
aS'parisc64-smp'
p592
ass(S'image'
g95
tp593
(dp594
S'suggests'
p595
S'aboot, fdutils'
p596
ss(S'description'
g79
NS's390x'
tp597
(dp598
S'hardware'
p599
S'IBM zSeries'
p600
sS'parts'
p601
(lp602
S'reader'
p603
ass(S'description'
NS'rt'
p604
tp605
(dp606
S'part-long-rt'
p607
S'This kernel includes the PREEMPT_RT realtime patch set.'
p608
sS'parts'
p609
(lp610
S'rt'
p611
asS'part-short-rt'
p612
S'PREEMPT_RT'
p613
ss(S'base'
g16
tp614
(dp615
S'kernel-arch'
p616
S'sparc'
p617
sg221
(lp618
g62
ass(S'build'
g105
NS'vexpress'
tp619
(dp620
S'image-file'
p621
S'arch/arm/boot/zImage'
p622
ss(S'base'
g87
tp623
(dp624
S'kernel-arch'
p625
S's390'
p626
sg221
(lp627
g62
ass(S'image'
g105
NS'omap'
tp628
(dp629
S'recommends'
p630
S'uboot-mkimage'
p631
ss(S'abi'
Ng604
tp632
(dp633
S'ignore-changes'
p634
(lp635
S'*'
ass(S'image'
g61
tp636
(dp637
S'suggests'
p638
S'mkvmlinuz'
p639
sS'configs'
p640
(lp641
S'powerpc/config'
p642
ass(S'image'
g141
tp643
(dp644
S'configs'
p645
(lp646
S'kernelarch-mips/config'
p647
aS'mips/config'
p648
asS'initramfs'
p649
I00
ss(S'description'
g141
NS'5kc-malta'
tp650
(dp651
S'hardware'
p652
S'MIPS Malta (64-bit)'
p653
sS'hardware-long'
p654
S'MIPS Malta boards (64-bit)'
p655
ss(g60
g74
g62
tp656
(dp657
g65
I01
sg66
(lp658
S'sparc64'
p659
aS'sparc64-smp'
p660
ass(S'description'
g55
NS'parisc'
tp661
(dp662
S'hardware'
p663
S'32-bit PA-RISC'
p664
ss(S'description'
g193
NS'r5k-cobalt'
tp665
(dp666
S'hardware'
p667
S'Cobalt'
p668
sS'hardware-long'
p669
S'Cobalt systems (Qube, RaQ, Qube2, RaQ2)'
p670
ss(g60
g95
g62
tp671
(dp672
g65
I01
sg66
(lp673
S'alpha-generic'
p674
aS'alpha-smp'
p675
aS'alpha-legacy'
p676
ass(S'description'
g35
g36
S'686-pae'
tp677
(dp678
S'parts'
p679
(lp680
S'xen'
p681
ass(g60
g27
g62
tp682
(dp683
g65
I01
sg66
(lp684
S'itanium'
p685
aS'mckinley'
p686
ass(S'base'
g61
tp687
(dp688
S'kernel-arch'
p689
S'powerpc'
p690
sg221
(lp691
g62
ass(S'build'
g293
NS'sh7785lcr'
tp692
(dp693
S'image-file'
p694
S'arch/sh/boot/zImage'
p695
ss(g60
g141
g62
tp696
(dp697
g65
I01
sg66
(lp698
S'r4k-ip22'
p699
aS'r5k-ip32'
p700
aS'sb1-bcm91250a'
p701
aS'sb1a-bcm91480b'
p702
aS'4kc-malta'
p703
aS'5kc-malta'
p704
aS'octeon'
p705
ass(S'description'
g27
NS'mckinley'
tp706
(dp707
S'hardware'
p708
S'Itanium II'
p709
ss(S'description'
g55
NS'parisc64-smp'
tp710
(dp711
S'hardware'
p712
S'multiprocessor 64-bit PA-RISC'
p713
ss(S'base'
g55
NS'parisc64'
tp714
(dp715
S'override-host-type'
p716
S'hppa64-linux-gnu'
p717
sS'cflags'
p718
S'-fno-cse-follow-jumps'
p719
ss(S'description'
g35
NS'486'
tp720
(dp721
S'hardware'
p722
S'older PCs'
p723
sS'parts'
p724
(lp725
S'up'
p726
asS'hardware-long'
p727
S'PCs with a single processor not supporting PAE'
p728
ss(S'description'
g35
NS'amd64'
tp729
(dp730
S'hardware'
p731
S'64-bit PCs'
p732
sS'hardware-long'
p733
S'PCs with AMD64, Intel 64 or VIA Nano processors'
p734
ss(S'image'
g69
tp735
(dp736
S'suggests'
p737
S'vmelilo, fdutils'
p738
sS'initramfs'
p739
I00
ss(S'image'
g147
NS'powerpc-smp'
tp740
(dp741
S'configs'
p742
(lp743
S'powerpc/config.powerpc'
p744
aS'powerpc/config.powerpc-smp'
p745
ass(S'description'
g79
NS's390x-tape'
tp746
(dp747
S'hardware'
p748
S'IBM zSeries'
p749
sS'parts'
p750
(lp751
S'tape'
p752
ass(S'description'
g105
NS'mx5'
tp753
(dp754
S'hardware'
p755
S'Freescale i.MX51/53'
p756
sS'hardware-long'
p757
S'Freescale i.MX51 or i.MX53 based systems'
p758
ss(S'image'
g136
NS'kirkwood'
tp759
(dp760
S'check-size'
p761
S'2097080'
p762
sS'recommends'
p763
S'uboot-mkimage'
p764
ss(S'description'
g5
NS'amd64'
tp765
(dp766
S'hardware'
p767
S'64-bit PCs'
p768
sS'hardware-long'
p769
S'PCs with AMD64, Intel 64 or VIA Nano processors'
p770
ss(S'description'
g79
tp771
(dp772
S'part-short-tape'
p773
S'IPL from tape'
p774
sS'part-long-tape'
p775
S'This kernel has support to IPL (boot) from a tape.'
p776
sS'part-long-reader'
p777
S'This kernel has support to IPL (boot) from a VM reader or DASD device.'
p778
ss(S'base'
g105
tp779
(dp780
S'kernel-arch'
p781
S'arm'
p782
sg221
(lp783
g62
ass(S'image'
g293
tp784
(dp785
S'suggests'
p786
S'fdutils'
p787
ss(S'base'
g55
tp788
(dp789
S'kernel-arch'
p790
S'parisc'
p791
sg221
(lp792
g62
asS'compiler'
p793
S'gcc-4.4'
p794
ss(S'image'
g193
NS'loongson-2f'
tp795
(dp796
S'recommends'
p797
S'libc6-loongson2f'
p798
ss(S'build'
g105
NS'mx5'
tp799
(dp800
S'image-file'
p801
S'arch/arm/boot/zImage'
p802
ss(S'description'
g193
NS'4kc-malta'
tp803
(dp804
S'hardware'
p805
S'MIPS Malta'
p806
sS'hardware-long'
p807
S'MIPS Malta boards'
p808
ss(S'base'
g293
tp809
(dp810
S'kernel-arch'
p811
S'sh'
p812
sg221
(lp813
g62
ass(S'abi'
g193
tp814
(dp815
S'ignore-changes'
p816
(lp817
S'vgacon_*'
p818
ass(S'image'
g74
tp819
(dp820
S'suggests'
p821
S'silo, fdutils'
p822
ss(S'description'
tp823
(dp824
S'part-long-up'
p825
S'This kernel is not suitable for SMP (multi-processor,\nmulti-core or hyper-threaded) systems.'
p826
sS'part-long-xen'
p827
S'This kernel also runs on a Xen hypervisor.\nIt supports both privileged (dom0) and unprivileged (domU) operation.'
p828
ss(S'description'
g141
NS'4kc-malta'
tp829
(dp830
S'hardware'
p831
S'MIPS Malta'
p832
sS'hardware-long'
p833
S'MIPS Malta boards'
p834
ss(S'image'
g193
NS'sb1a-bcm91480b'
tp835
(dp836
S'configs'
p837
(lp838
S'mips/config.sb1a-bcm91480b'
p839
ass(S'build'
g79
NS's390-tape'
tp840
(dp841
S'modules'
p842
I00
ss(S'description'
g193
NS'sb1a-bcm91480b'
tp843
(dp844
S'hardware'
p845
S'BCM91480B'
p846
sS'hardware-long'
p847
S'Broadcom BCM91480B systems (aka BigSur)'
p848
ss(S'image'
g16
tp849
(dp850
S'suggests'
p851
S'silo, fdutils'
p852
sS'configs'
p853
(lp854
S'sparc/config'
p855
ass(S'description'
g141
NS'r5k-ip32'
tp856
(dp857
S'hardware'
p858
S'SGI IP32'
p859
sS'hardware-long'
p860
S'SGI IP32 systems (O2)'
p861
ss(S'description'
g74
NS'sparc64-smp'
tp862
(dp863
S'hardware'
p864
S'multiprocessor 64-bit UltraSPARC'
p865
ss(S'base'
g147
tp866
(dp867
S'kernel-arch'
p868
S'powerpc'
p869
sg221
(lp870
g62
ass(S'image'
g79
NS's390x-tape'
tp871
(dp872
S'override-localversion'
p873
S's390x'
p874
sS'type'
p875
S'plain-s390-tape'
p876
sS'initramfs'
p877
I00
ss(S'build'
g136
NS'iop32x'
tp878
(dp879
S'image-file'
p880
S'arch/arm/boot/zImage'
p881
ss(S'image'
g193
NS'4kc-malta'
tp882
(dp883
S'configs'
p884
(lp885
S'mips/config.4kc-malta'
p886
ass(S'description'
g95
NS'alpha-legacy'
tp887
(dp888
S'hardware'
p889
S'Alpha Legacy'
p890
sS'hardware-long'
p891
S'DEC Alpha systems with legacy kernel start address'
p892
ss(S'description'
g16
NS'sparc64-smp'
tp893
(dp894
S'hardware'
p895
S'multiprocessor 64-bit UltraSPARC'
p896
ss(S'description'
g87
tp897
(dp898
S'part-short-tape'
p899
S'IPL from tape'
p900
sS'part-long-tape'
p901
S'This kernel has support to IPL (boot) from a tape.'
p902
sS'part-long-reader'
p903
S'This kernel has support to IPL (boot) from a VM reader or DASD device.'
p904
ss(S'image'
g105
tp905
(dp906
S'suggests'
p907
S'fdutils'
p908
sS'configs'
p909
(lp910
S'armel/config'
p911
aS'armhf/config'
p912
ass(S'abi'
tp913
(dp914
S'abiname'
p915
S'4'
sS'ignore-changes'
p916
(lp917
S'module:net/l2tp/*'
p918
aS'__rpc_wait_for_completion_task'
p919
aS'bc_svc_process'
p920
aS'nfs4*'
p921
aS'nfs_*'
p922
aS'nlmclnt_*'
p923
aS'nlmsvc_*'
p924
aS'pnfs_*'
p925
aS'put_lseg'
p926
aS'put_rpccred'
p927
aS'rpc_*'
p928
aS'rpcauth_*'
p929
aS'rpcb_getport_async'
p930
aS'svc_*'
p931
aS'svcauth_unix_set_client'
p932
aS'unix_domain_find'
p933
aS'xprt_*'
p934
aS'get_write_access'
p935
aS'module:drivers/gpu/drm/*'
p936
aS'drm_sman_*'
p937
aS'intel_agp_enabled'
p938
aS'intel_gmch_*'
p939
aS'intel_gtt_*'
p940
aS'module:drivers/net/wan/cycx_drv'
p941
aS'module:net/wanrouter/wanrouter'
p942
aS'register_virtio_*'
p943
aS'unregister_virtio_*'
p944
aS'virtio_*'
p945
aS'virtqueue_*'
p946
aS'vring_*'
p947
aS'module:drivers/staging/*'
p948
aS'module:drivers/net/wireless/ath/*'
p949
aS'module:drivers/net/wireless/rtlwifi/*'
p950
aS'kmsg_dump_register'
p951
aS'kmsg_dump_unregister'
p952
aS'register_efivars'
p953
aS'unregister_efivars'
p954
aS'module:drivers/usb/serial/*'
p955
aS'module:arch/s390/kvm/kvm'
p956
aS'module:drivers/scsi/esp_scsi'
p957
ass(S'description'
g27
NS'itanium'
tp958
(dp959
S'hardware'
p960
S'Itanium'
p961
ss(g60
g69
g62
tp962
(dp963
g65
I01
sg66
(lp964
S'amiga'
p965
aS'atari'
p966
aS'bvme6000'
p967
aS'mac'
p968
aS'mvme147'
p969
aS'mvme16x'
p970
ass(S'abi'
g35
tp971
(dp972
S'ignore-changes'
p973
(lp974
S'disable_hlt'
p975
aS'enable_hlt'
p976
aS'module:arch/x86/kvm/kvm'
p977
ass(S'description'
g136
NS'orion5x'
tp978
(dp979
S'hardware'
p980
S'Marvell Orion'
p981
sS'hardware-long'
p982
S'Marvell Orion 5181, 5182 and 5281 based systems (QNAP TS-109/TS-209, etc)'
p983
ss(S'base'
tp984
(dp985
S'arches'
p986
(lp987
S'alpha'
p988
aS'amd64'
p989
aS'armel'
p990
aS'armhf'
p991
aS'hppa'
p992
aS'i386'
p993
aS'ia64'
p994
aS'm68k'
p995
aS'mips'
p996
aS'mipsel'
p997
aS'powerpc'
p998
aS'ppc64'
p999
aS's390'
p1000
aS's390x'
p1001
aS'sh4'
p1002
aS'sparc'
p1003
aS'sparc64'
p1004
asS'featuresets'
p1005
(lp1006
S'none'
p1007
aS'rt'
p1008
asS'compiler'
p1009
S'gcc-4.6'
p1010
ss(S'image'
g293
NS'sh7785lcr'
tp1011
(dp1012
S'check-size'
p1013
S'4194304'
p1014
sS'recommends'
p1015
S'uboot-mkimage'
p1016
ss(S'image'
g193
NS'sb1-bcm91250a'
tp1017
(dp1018
S'configs'
p1019
(lp1020
S'mips/config.sb1-bcm91250a'
p1021
ass(S'build'
g293
NS'sh7751r'
tp1022
(dp1023
S'image-file'
p1024
S'arch/sh/boot/zImage'
p1025
ss(S'description'
g147
NS'powerpc64'
tp1026
(dp1027
S'hardware'
p1028
S'64-bit PowerPC'
p1029
ss(S'image'
g16
NS'sparc64-smp'
tp1030
(dp1031
S'configs'
p1032
(lp1033
S'sparc/config.sparc64-smp'
p1034
ass(S'base'
g69
tp1035
(dp1036
S'kernel-arch'
p1037
S'm68k'
p1038
sg221
(lp1039
g62
asS'cflags'
p1040
S'-ffreestanding'
p1041
sS'compiler'
p1042
S'gcc-4.6'
p1043
ss(S'image'
tp1044
(dp1045
S'initramfs-generators'
p1046
(lp1047
S'initramfs-tools'
p1048
aS'initramfs-fallback'
p1049
asS'type'
p1050
S'plain'
p1051
ss(g60
g16
g62
tp1052
(dp1053
g65
I01
sg66
(lp1054
S'sparc64'
p1055
aS'sparc64-smp'
p1056
ass(S'description'
g141
NS'octeon'
tp1057
(dp1058
S'hardware'
p1059
S'Octeon'
p1060
sS'hardware-long'
p1061
S'Cavium Networks Octeon'
p1062
ss(S'image'
g61
NS'powerpc64'
tp1063
(dp1064
S'configs'
p1065
(lp1066
S'powerpc/config.powerpc64'
p1067
ass(S'build'
g79
NS's390x'
tp1068
(dp1069
S'debug-info'
p1070
I01
ss(S'image'
g87
tp1071
(dp1072
S'configs'
p1073
(lp1074
S's390/config'
p1075
asS'bootloaders'
p1076
(lp1077
S's390-tools'
p1078
ass(S'image'
g35
tp1079
(dp1080
S'configs'
p1081
(lp1082
S'kernelarch-x86/config'
p1083
asS'bootloaders'
p1084
(lp1085
S'grub-pc'
p1086
aS'extlinux'
p1087
aS'lilo'
p1088
ass(S'description'
g147
NS'powerpc'
tp1089
(dp1090
S'hardware'
p1091
S'uniprocessor 32-bit PowerPC'
p1092
ss(S'description'
g136
NS'kirkwood'
tp1093
(dp1094
S'hardware'
p1095
S'Marvell Kirkwood'
p1096
sS'hardware-long'
p1097
S'Marvell Kirkwood based systems (SheevaPlug, QNAP TS-119/TS-219, etc)'
p1098
ss(S'build'
g87
NS's390x'
tp1099
(dp1100
S'debug-info'
p1101
I01
ss(S'description'
g61
NS'powerpc64'
tp1102
(dp1103
S'hardware'
p1104
S'64-bit PowerPC'
p1105
sstRp1106
.